; ModuleID = 'source-C-CXX/56/2224.c'
source_filename = "source-C-CXX/56/2224.c"
target datalayout = "e-m:e-p270:32:32-p271:32:32-p272:64:64-i64:64-f80:128-n8:16:32:64-S128"
target triple = "x86_64-pc-linux-gnu"

@.str = private unnamed_addr constant [3 x i8] c"%d\00", align 1
@.str.1 = private unnamed_addr constant [3 x i8] c"%s\00", align 1

; Function Attrs: nofree nounwind sspstrong uwtable
define dso_local void @main() local_unnamed_addr #0 {
  %1 = alloca i32, align 4
  %2 = alloca [20 x i8], align 16
  %3 = bitcast i32* %1 to i8*
  call void @llvm.lifetime.start.p0i8(i64 4, i8* nonnull %3) #5
  %4 = getelementptr inbounds [20 x i8], [20 x i8]* %2, i64 0, i64 0
  call void @llvm.lifetime.start.p0i8(i64 20, i8* nonnull %4) #5
  %5 = call i32 (i8*, ...) @__isoc99_scanf(i8* getelementptr inbounds ([3 x i8], [3 x i8]* @.str, i64 0, i64 0), i32* nonnull %1)
  %6 = load i32, i32* %1, align 4, !tbaa !5
  %7 = icmp sgt i32 %6, 0
  br i1 %7, label %8, label %70

8:                                                ; preds = %0, %65
  %9 = phi i32 [ %67, %65 ], [ 0, %0 ]
  %10 = call i32 (i8*, ...) @__isoc99_scanf(i8* getelementptr inbounds ([3 x i8], [3 x i8]* @.str.1, i64 0, i64 0), i8* nonnull %4)
  %11 = call i64 @strlen(i8* noundef nonnull %4) #6
  %12 = trunc i64 %11 to i32
  %13 = add i32 %12, -2
  %14 = sext i32 %13 to i64
  %15 = getelementptr inbounds [20 x i8], [20 x i8]* %2, i64 0, i64 %14
  %16 = load i8, i8* %15, align 1, !tbaa !9
  %17 = icmp eq i8 %16, 101
  br i1 %17, label %18, label %32

18:                                               ; preds = %8
  %19 = icmp sgt i32 %12, 2
  br i1 %19, label %20, label %47

20:                                               ; preds = %18
  %21 = zext i32 %13 to i64
  br label %22

22:                                               ; preds = %20, %22
  %23 = phi i64 [ 0, %20 ], [ %28, %22 ]
  %24 = getelementptr inbounds [20 x i8], [20 x i8]* %2, i64 0, i64 %23
  %25 = load i8, i8* %24, align 1, !tbaa !9
  %26 = sext i8 %25 to i32
  %27 = call i32 @putchar(i32 %26)
  %28 = add nuw nsw i64 %23, 1
  %29 = icmp eq i64 %28, %21
  br i1 %29, label %30, label %22, !llvm.loop !10

30:                                               ; preds = %22
  %31 = load i8, i8* %15, align 1, !tbaa !9
  br label %32

32:                                               ; preds = %30, %8
  %33 = phi i8 [ %16, %8 ], [ %31, %30 ]
  %34 = icmp eq i8 %33, 108
  %35 = icmp sgt i32 %12, 2
  %36 = select i1 %34, i1 %35, i1 false
  br i1 %36, label %37, label %47

37:                                               ; preds = %32
  %38 = zext i32 %13 to i64
  br label %39

39:                                               ; preds = %37, %39
  %40 = phi i64 [ 0, %37 ], [ %45, %39 ]
  %41 = getelementptr inbounds [20 x i8], [20 x i8]* %2, i64 0, i64 %40
  %42 = load i8, i8* %41, align 1, !tbaa !9
  %43 = sext i8 %42 to i32
  %44 = call i32 @putchar(i32 %43)
  %45 = add nuw nsw i64 %40, 1
  %46 = icmp eq i64 %45, %38
  br i1 %46, label %47, label %39, !llvm.loop !12

47:                                               ; preds = %39, %18, %32
  %48 = add i32 %12, -3
  %49 = sext i32 %48 to i64
  %50 = getelementptr inbounds [20 x i8], [20 x i8]* %2, i64 0, i64 %49
  %51 = load i8, i8* %50, align 1, !tbaa !9
  %52 = icmp eq i8 %51, 105
  %53 = icmp sgt i32 %12, 3
  %54 = select i1 %52, i1 %53, i1 false
  br i1 %54, label %55, label %65

55:                                               ; preds = %47
  %56 = zext i32 %48 to i64
  br label %57

57:                                               ; preds = %55, %57
  %58 = phi i64 [ 0, %55 ], [ %63, %57 ]
  %59 = getelementptr inbounds [20 x i8], [20 x i8]* %2, i64 0, i64 %58
  %60 = load i8, i8* %59, align 1, !tbaa !9
  %61 = sext i8 %60 to i32
  %62 = call i32 @putchar(i32 %61)
  %63 = add nuw nsw i64 %58, 1
  %64 = icmp eq i64 %63, %56
  br i1 %64, label %65, label %57, !llvm.loop !13

65:                                               ; preds = %57, %47
  %66 = call i32 @putchar(i32 10)
  %67 = add nuw nsw i32 %9, 1
  %68 = load i32, i32* %1, align 4, !tbaa !5
  %69 = icmp slt i32 %67, %68
  br i1 %69, label %8, label %70, !llvm.loop !14

70:                                               ; preds = %65, %0
  call void @llvm.lifetime.end.p0i8(i64 20, i8* nonnull %4) #5
  call void @llvm.lifetime.end.p0i8(i64 4, i8* nonnull %3) #5
  ret void
}

; Function Attrs: argmemonly mustprogress nofree nosync nounwind willreturn
declare void @llvm.lifetime.start.p0i8(i64 immarg, i8* nocapture) #1

; Function Attrs: nofree nounwind
declare noundef i32 @__isoc99_scanf(i8* nocapture noundef readonly, ...) local_unnamed_addr #2

; Function Attrs: argmemonly mustprogress nofree nounwind readonly willreturn
declare i64 @strlen(i8* nocapture) local_unnamed_addr #3

; Function Attrs: argmemonly mustprogress nofree nosync nounwind willreturn
declare void @llvm.lifetime.end.p0i8(i64 immarg, i8* nocapture) #1

; Function Attrs: nofree nounwind
declare noundef i32 @putchar(i32 noundef) local_unnamed_addr #4


!llvm.module.flags = !{!0, !1, !2, !3}
!llvm.ident = !{!4}

!0 = !{i32 1, !"wchar_size", i32 4}
!1 = !{i32 7, !"PIC Level", i32 2}
!2 = !{i32 7, !"PIE Level", i32 2}
!3 = !{i32 7, !"uwtable", i32 1}
!4 = !{!"clang version 13.0.0"}
!5 = !{!6, !6, i64 0}
!6 = !{!"int", !7, i64 0}
!7 = !{!"omnipotent char", !8, i64 0}
!8 = !{!"Simple C/C++ TBAA"}
!9 = !{!7, !7, i64 0}
!10 = distinct !{!10, !11}
!11 = !{!"llvm.loop.mustprogress"}
!12 = distinct !{!12, !11}
!13 = distinct !{!13, !11}
!14 = distinct !{!14, !11}
